target datalayout = "e-m:e-p270:32:32-p271:32:32-p272:64:64-i64:64-i128:128-f80:128-n8:16:32:64-S128"
target triple = "x86_64-pc-linux-gnu"

%struct.SDL_AtomicInt = type { i32 }
%struct.SDL_EventWatchList = type { ptr, %struct.SDL_EventWatcher, ptr, i32, i8, i8 }
%struct.SDL_EventWatcher = type { ptr, ptr, i8 }
%struct.SDL_MouseWheelEvent = type { i32, i32, i64, i32, i32, float, float, i32, float, float, i32, i32 }
%struct.anon = type { ptr, i8, %struct.SDL_AtomicInt, i32, ptr, ptr, ptr }
%struct.SDL_EventEntry = type { %union.SDL_Event, ptr, ptr, ptr }
%union.SDL_Event = type { %struct.SDL_MouseWheelEvent, [72 x i8] }

@SDL_event_watchers = internal global %struct.SDL_EventWatchList zeroinitializer, align 8
@SDL_EventQ = internal global { ptr, i8, [3 x i8], %struct.SDL_AtomicInt, i32, [4 x i8], ptr, ptr, ptr } zeroinitializer, align 8

; Function Attrs: nounwind uwtable
define hidden void @SDL_SetEventFilter_REAL(ptr noundef %0, ptr noundef %1) #0 {
  %3 = alloca ptr, align 8
  %4 = alloca ptr, align 8
  %5 = alloca ptr, align 8
  %6 = alloca ptr, align 8
  store ptr %0, ptr %3, align 8
  store ptr %1, ptr %4, align 8
  call void @llvm.lifetime.start.p0(i64 8, ptr %5) #5
  call void @llvm.lifetime.start.p0(i64 8, ptr %6) #5
  %7 = load ptr, ptr @SDL_event_watchers, align 8
  call void @SDL_LockMutex_REAL(ptr noundef %7)
  %8 = load ptr, ptr %3, align 8
  store ptr %8, ptr getelementptr inbounds nuw (%struct.SDL_EventWatchList, ptr @SDL_event_watchers, i32 0, i32 1), align 8
  %9 = load ptr, ptr %4, align 8
  store ptr %9, ptr getelementptr inbounds nuw (%struct.SDL_EventWatcher, ptr getelementptr inbounds nuw (%struct.SDL_EventWatchList, ptr @SDL_event_watchers, i32 0, i32 1), i32 0, i32 1), align 8
  %10 = load ptr, ptr %3, align 8
  %11 = icmp ne ptr %10, null
  br i1 %11, label %12, label %34

12:                                               ; preds = %2
  %13 = load ptr, ptr @SDL_EventQ, align 8
  call void @SDL_LockMutex_REAL(ptr noundef %13)
  %14 = load ptr, ptr getelementptr inbounds nuw (%struct.anon, ptr @SDL_EventQ, i32 0, i32 4), align 8
  store ptr %14, ptr %5, align 8
  br label %15

15:                                               ; preds = %30, %12
  %16 = load ptr, ptr %5, align 8
  %17 = icmp ne ptr %16, null
  br i1 %17, label %18, label %32

18:                                               ; preds = %15
  %19 = load ptr, ptr %5, align 8
  %20 = getelementptr inbounds nuw %struct.SDL_EventEntry, ptr %19, i32 0, i32 3
  %21 = load ptr, ptr %20, align 8
  store ptr %21, ptr %6, align 8
  %22 = load ptr, ptr %3, align 8
  %23 = load ptr, ptr %4, align 8
  %24 = load ptr, ptr %5, align 8
  %25 = getelementptr inbounds nuw %struct.SDL_EventEntry, ptr %24, i32 0, i32 0
  %26 = call zeroext i1 %22(ptr noundef %23, ptr noundef %25)
  br i1 %26, label %29, label %27

27:                                               ; preds = %18
  %28 = load ptr, ptr %5, align 8
  call void @SDL_CutEvent(ptr noundef %28)
  br label %29

29:                                               ; preds = %27, %18
  br label %30

30:                                               ; preds = %29
  %31 = load ptr, ptr %6, align 8
  store ptr %31, ptr %5, align 8
  br label %15, !llvm.loop !17

32:                                               ; preds = %15
  %33 = load ptr, ptr @SDL_EventQ, align 8
  call void @SDL_UnlockMutex_REAL(ptr noundef %33)
  br label %34

34:                                               ; preds = %32, %2
  %35 = load ptr, ptr @SDL_event_watchers, align 8
  call void @SDL_UnlockMutex_REAL(ptr noundef %35)
  call void @llvm.lifetime.end.p0(i64 8, ptr %6) #5
  call void @llvm.lifetime.end.p0(i64 8, ptr %5) #5
  ret void
}