; Function Attrs: nounwind uwtable
define hidden void @SDL_SetEventFilter_REAL(ptr noundef %0, ptr noundef %1) local_unnamed_addr #0 {
  %3 = load ptr, ptr @SDL_event_watchers, align 8
  tail call void @SDL_LockMutex_REAL(ptr noundef %3) #8
  store ptr %0, ptr getelementptr inbounds nuw (i8, ptr @SDL_event_watchers, i64 8), align 8
  store ptr %1, ptr getelementptr inbounds nuw (i8, ptr @SDL_event_watchers, i64 16), align 8
  %.not = icmp eq ptr %0, null
  br i1 %.not, label %13, label %4

4:                                                ; preds = %2
  %5 = load ptr, ptr @SDL_EventQ, align 8
  tail call void @SDL_LockMutex_REAL(ptr noundef %5) #8
  %6 = load ptr, ptr getelementptr inbounds nuw (i8, ptr @SDL_EventQ, i64 24), align 8
  %.not1112 = icmp eq ptr %6, null
  br i1 %.not1112, label %._crit_edge, label %.lr.ph

.lr.ph:                                           ; preds = %4, %11
  %.013 = phi ptr [ %8, %11 ], [ %6, %4 ]
  %7 = getelementptr inbounds nuw i8, ptr %.013, i64 144
  %8 = load ptr, ptr %7, align 8
  %9 = tail call zeroext i1 %0(ptr noundef %1, ptr noundef nonnull %.013) #8
  br i1 %9, label %11, label %10

10:                                               ; preds = %.lr.ph
  tail call fastcc void @SDL_CutEvent(ptr noundef %.013)
  br label %11

11:                                               ; preds = %.lr.ph, %10
  %.not11 = icmp eq ptr %8, null
  br i1 %.not11, label %._crit_edge, label %.lr.ph, !llvm.loop !18

._crit_edge:                                      ; preds = %11, %4
  %12 = load ptr, ptr @SDL_EventQ, align 8
  tail call void @SDL_UnlockMutex_REAL(ptr noundef %12) #8
  br label %13

13:                                               ; preds = %._crit_edge, %2
  %14 = load ptr, ptr @SDL_event_watchers, align 8
  tail call void @SDL_UnlockMutex_REAL(ptr noundef %14) #8
  ret void
}